; Function Attrs: mustprogress ssp uwtable
define void @_ZNK6open3d4core7HashSet16GetActiveIndicesEv(ptr dead_on_unwind noalias writable sret(%"class.open3d::core::Tensor") align 8 initializes((0, 8)) %0, ptr noundef nonnull readonly align 8 captures(none) dereferenceable(24) %1) local_unnamed_addr #1 align 2 personality ptr @__gxx_personality_v0 {
  %3 = alloca %"class.std::initializer_list", align 8
  %4 = alloca [1 x i64], align 8
  %5 = alloca %"class.std::initializer_list", align 8
  %6 = alloca [1 x i64], align 8
  store ptr getelementptr inbounds nuw inrange(-16, 24) (i8, ptr @_ZTVN6open3d4core6TensorE, i64 16), ptr %0, align 8, !tbaa !4
  %7 = getelementptr inbounds nuw i8, ptr %0, i64 8
  call void @llvm.lifetime.start.p0(i64 16, ptr nonnull %3) #19
  call void @llvm.lifetime.start.p0(i64 8, ptr nonnull %4) #19
  store i64 0, ptr %4, align 8, !tbaa !42
  store ptr %4, ptr %3, align 8, !tbaa !44
  %8 = getelementptr inbounds nuw i8, ptr %3, i64 8
  store i64 1, ptr %8, align 8, !tbaa !47
  call void @_ZN6open3d4core10SizeVectorC1ERKSt16initializer_listIlE(ptr noundef nonnull align 8 dereferenceable(48) %7, ptr noundef nonnull align 8 dereferenceable(16) %3)
  call void @llvm.lifetime.end.p0(i64 8, ptr nonnull %4) #19
  call void @llvm.lifetime.end.p0(i64 16, ptr nonnull %3) #19
  %9 = getelementptr inbounds nuw i8, ptr %0, i64 56
  call void @llvm.lifetime.start.p0(i64 16, ptr nonnull %5) #19
  call void @llvm.lifetime.start.p0(i64 8, ptr nonnull %6) #19
  store i64 1, ptr %6, align 8, !tbaa !42
  store ptr %6, ptr %5, align 8, !tbaa !44
  %10 = getelementptr inbounds nuw i8, ptr %5, i64 8
  store i64 1, ptr %10, align 8, !tbaa !47
  invoke void @_ZN6open3d4core10SizeVectorC1ERKSt16initializer_listIlE(ptr noundef nonnull align 8 dereferenceable(48) %9, ptr noundef nonnull align 8 dereferenceable(16) %5)
          to label %_ZN6open3d4core6TensorC2Ev.exit unwind label %11

11:                                               ; preds = %2
  %12 = landingpad { ptr, i32 }
          cleanup
  call void @llvm.lifetime.end.p0(i64 8, ptr nonnull %6) #19
  call void @llvm.lifetime.end.p0(i64 16, ptr nonnull %5) #19
  %13 = load ptr, ptr %7, align 8, !tbaa !30
  %14 = getelementptr inbounds nuw i8, ptr %0, i64 24
  %15 = icmp eq ptr %13, %14
  br i1 %15, label %common.resume, label %16

16:                                               ; preds = %11
  call void @free(ptr noundef %13) #19
  br label %common.resume

common.resume:                                    ; preds = %11, %16, %22
  %common.resume.op = phi { ptr, i32 } [ %23, %22 ], [ %12, %16 ], [ %12, %11 ]
  resume { ptr, i32 } %common.resume.op

_ZN6open3d4core6TensorC2Ev.exit:                  ; preds = %2
  call void @llvm.lifetime.end.p0(i64 8, ptr nonnull %6) #19
  call void @llvm.lifetime.end.p0(i64 16, ptr nonnull %5) #19
  %17 = getelementptr inbounds nuw i8, ptr %0, i64 104
  store ptr null, ptr %17, align 8, !tbaa !48
  %18 = getelementptr inbounds nuw i8, ptr %0, i64 112
  call void @llvm.memcpy.p0.p0.i64(ptr noundef nonnull align 8 dereferenceable(32) %18, ptr noundef nonnull align 8 dereferenceable(32) @_ZN6open3d4core9UndefinedE, i64 32, i1 false), !tbaa.struct !62
  %19 = getelementptr inbounds nuw i8, ptr %0, i64 144
  call void @llvm.memset.p0.i64(ptr noundef nonnull align 8 dereferenceable(16) %19, i8 0, i64 16, i1 false)
  %20 = getelementptr inbounds nuw i8, ptr %1, i64 8
  %21 = load ptr, ptr %20, align 8, !tbaa !19
  invoke void @_ZNK6open3d4core7HashMap16GetActiveIndicesERNS0_6TensorE(ptr noundef nonnull align 8 dereferenceable(152) %21, ptr noundef nonnull align 8 dereferenceable(160) %0)
          to label %_ZNK6open3d4core7HashSet16GetActiveIndicesERNS0_6TensorE.exit unwind label %22

22:                                               ; preds = %_ZN6open3d4core6TensorC2Ev.exit
  %23 = landingpad { ptr, i32 }
          cleanup
  call void @_ZN6open3d4core6TensorD2Ev(ptr noundef nonnull align 8 dereferenceable(160) %0) #19
  br label %common.resume

_ZNK6open3d4core7HashSet16GetActiveIndicesERNS0_6TensorE.exit: ; preds = %_ZN6open3d4core6TensorC2Ev.exit
  ret void
}